target datalayout = "e-m:e-p270:32:32-p271:32:32-p272:64:64-i64:64-i128:128-f80:128-n8:16:32:64-S128"
target triple = "x86_64-pc-linux-gnu"

%struct.rb_data_type_struct = type { ptr, %struct.anon.12, ptr, ptr, i64 }
%struct.anon.12 = type { ptr, ptr, ptr, ptr, [1 x ptr] }
%struct.proc_entry = type { i64, i64, ptr }
%struct.RBasic = type { i64, i64 }
%struct.RArray = type { %struct.RBasic, %union.anon.14 }
%union.anon.14 = type { %struct.anon.15 }
%struct.anon.15 = type { i64, %union.anon.16, ptr }
%union.anon.16 = type { i64 }
%struct.MEMO = type { i64, i64, i64, i64, %union.anon.17 }
%union.anon.17 = type { i64 }

@proc_entry_data_type = internal constant %struct.rb_data_type_struct { ptr @.str.107, %struct.anon.12 { ptr @proc_entry_mark, ptr inttoptr (i64 -1 to ptr), ptr null, ptr @proc_entry_compact, [1 x ptr] zeroinitializer }, ptr null, ptr null, i64 35 }, align 8
@.str.108 = private unnamed_addr constant [20 x i8] c"../internal/imemo.h\00", align 1

; Function Attrs: inlinehint nounwind sspstrong willreturn memory(none) uwtable
define internal zeroext i1 @RB_IMMEDIATE_P(i64 noundef %0) #2 {
  %2 = alloca i64, align 8
  store i64 %0, ptr %2, align 8, !tbaa !7
  %3 = load i64, ptr %2, align 8, !tbaa !7
  %4 = and i64 %3, 7
  %5 = icmp ne i64 %4, 0
  ret i1 %5
}

; Function Attrs: inlinehint nounwind sspstrong willreturn memory(none) uwtable
define internal zeroext i1 @RB_SPECIAL_CONST_P(i64 noundef %0) #2 {
  %2 = alloca i64, align 8
  store i64 %0, ptr %2, align 8, !tbaa !7
  %3 = load i64, ptr %2, align 8, !tbaa !7
  %4 = icmp eq i64 %3, 0
  br i1 %4, label %8, label %5

5:                                                ; preds = %1
  %6 = load i64, ptr %2, align 8, !tbaa !7
  %7 = call zeroext i1 @RB_IMMEDIATE_P(i64 noundef %6) #24
  br label %8

8:                                                ; preds = %5, %1
  %9 = phi i1 [ true, %1 ], [ %7, %5 ]
  ret i1 %9
}

; Function Attrs: inlinehint nounwind sspstrong willreturn memory(read) uwtable
define internal i64 @RB_FL_TEST_RAW(i64 noundef %0, i64 noundef %1) #6 {
  %3 = alloca i64, align 8
  %4 = alloca i64, align 8
  store i64 %0, ptr %3, align 8, !tbaa !7
  store i64 %1, ptr %4, align 8, !tbaa !7
  %5 = load i64, ptr %3, align 8, !tbaa !7
  %6 = inttoptr i64 %5 to ptr
  %7 = getelementptr inbounds nuw %struct.RBasic, ptr %6, i32 0, i32 0
  %8 = load i64, ptr %7, align 8, !tbaa !87
  %9 = load i64, ptr %4, align 8, !tbaa !7
  %10 = and i64 %8, %9
  ret i64 %10
}

; Function Attrs: inlinehint nounwind sspstrong willreturn memory(read) uwtable
define internal i64 @RARRAY_EMBED_LEN(i64 noundef %0) #6 {
  %2 = alloca i64, align 8
  %3 = alloca i64, align 8
  store i64 %0, ptr %2, align 8, !tbaa !7
  call void @llvm.lifetime.start.p0(i64 8, ptr %3) #23
  %4 = load i64, ptr %2, align 8, !tbaa !7
  %5 = inttoptr i64 %4 to ptr
  %6 = getelementptr inbounds nuw %struct.RBasic, ptr %5, i32 0, i32 0
  %7 = load i64, ptr %6, align 8, !tbaa !87
  store i64 %7, ptr %3, align 8, !tbaa !7
  %8 = load i64, ptr %3, align 8, !tbaa !7
  %9 = and i64 %8, 4161536
  store i64 %9, ptr %3, align 8, !tbaa !7
  %10 = load i64, ptr %3, align 8, !tbaa !7
  %11 = lshr i64 %10, 15
  store i64 %11, ptr %3, align 8, !tbaa !7
  %12 = load i64, ptr %3, align 8, !tbaa !7
  call void @llvm.lifetime.end.p0(i64 8, ptr %3) #23
  ret i64 %12
}

; Function Attrs: inlinehint nounwind sspstrong uwtable
define internal i64 @rb_obj_written(i64 noundef %0, i64 noundef %1, i64 noundef %2, ptr noundef %3, i32 noundef %4) #4 {
  %6 = alloca i64, align 8
  %7 = alloca i64, align 8
  %8 = alloca i64, align 8
  %9 = alloca ptr, align 8
  %10 = alloca i32, align 4
  store i64 %0, ptr %6, align 8, !tbaa !7
  store i64 %1, ptr %7, align 8, !tbaa !7
  store i64 %2, ptr %8, align 8, !tbaa !7
  store ptr %3, ptr %9, align 8, !tbaa !34
  store i32 %4, ptr %10, align 4, !tbaa !11
  %11 = load i64, ptr %8, align 8, !tbaa !7
  %12 = call zeroext i1 @RB_SPECIAL_CONST_P(i64 noundef %11) #24
  br i1 %12, label %16, label %13

13:                                               ; preds = %5
  %14 = load i64, ptr %6, align 8, !tbaa !7
  %15 = load i64, ptr %8, align 8, !tbaa !7
  call void @rb_gc_writebarrier(i64 noundef %14, i64 noundef %15)
  br label %16

16:                                               ; preds = %13, %5
  %17 = load i64, ptr %6, align 8, !tbaa !7
  ret i64 %17
}

; Function Attrs: inlinehint nounwind sspstrong willreturn memory(read) uwtable
define internal zeroext i1 @RB_FL_ANY_RAW(i64 noundef %0, i64 noundef %1) #6 {
  %3 = alloca i64, align 8
  %4 = alloca i64, align 8
  store i64 %0, ptr %3, align 8, !tbaa !7
  store i64 %1, ptr %4, align 8, !tbaa !7
  %5 = load i64, ptr %3, align 8, !tbaa !7
  %6 = load i64, ptr %4, align 8, !tbaa !7
  %7 = call i64 @RB_FL_TEST_RAW(i64 noundef %5, i64 noundef %6) #26
  %8 = icmp ne i64 %7, 0
  ret i1 %8
}

; Function Attrs: inlinehint nounwind sspstrong uwtable
define internal i32 @rb_long2int_inline(i64 noundef %0) #4 {
  %2 = alloca i64, align 8
  %3 = alloca i32, align 4
  store i64 %0, ptr %2, align 8, !tbaa !7
  call void @llvm.lifetime.start.p0(i64 4, ptr %3) #23
  %4 = load i64, ptr %2, align 8, !tbaa !7
  %5 = trunc i64 %4 to i32
  store i32 %5, ptr %3, align 4, !tbaa !11
  %6 = load i32, ptr %3, align 4, !tbaa !11
  %7 = sext i32 %6 to i64
  %8 = load i64, ptr %2, align 8, !tbaa !7
  %9 = icmp ne i64 %7, %8
  br i1 %9, label %10, label %12

10:                                               ; preds = %1
  %11 = load i64, ptr %2, align 8, !tbaa !7
  call void @rb_out_of_int(i64 noundef %11) #29
  unreachable

12:                                               ; preds = %1
  %13 = load i32, ptr %3, align 4, !tbaa !11
  call void @llvm.lifetime.end.p0(i64 4, ptr %3) #23
  ret i32 %13
}

; Function Attrs: inlinehint nounwind sspstrong willreturn memory(read) uwtable
define internal i64 @rb_array_len(i64 noundef %0) #6 {
  %2 = alloca i64, align 8
  %3 = alloca i64, align 8
  store i64 %0, ptr %3, align 8, !tbaa !7
  %4 = load i64, ptr %3, align 8, !tbaa !7
  %5 = call zeroext i1 @RB_FL_ANY_RAW(i64 noundef %4, i64 noundef 8192) #26
  br i1 %5, label %6, label %9

6:                                                ; preds = %1
  %7 = load i64, ptr %3, align 8, !tbaa !7
  %8 = call i64 @RARRAY_EMBED_LEN(i64 noundef %7) #26
  store i64 %8, ptr %2, align 8
  br label %15

9:                                                ; preds = %1
  %10 = load i64, ptr %3, align 8, !tbaa !7
  %11 = inttoptr i64 %10 to ptr
  %12 = getelementptr inbounds nuw %struct.RArray, ptr %11, i32 0, i32 1
  %13 = getelementptr inbounds nuw %struct.anon.15, ptr %12, i32 0, i32 0
  %14 = load i64, ptr %13, align 8, !tbaa !93
  store i64 %14, ptr %2, align 8
  br label %15

15:                                               ; preds = %9, %6
  %16 = load i64, ptr %2, align 8
  ret i64 %16
}

; Function Attrs: inlinehint nounwind sspstrong uwtable
define internal i64 @rb_obj_write(i64 noundef %0, ptr noundef %1, i64 noundef %2, ptr noundef %3, i32 noundef %4) #4 {
  %6 = alloca i64, align 8
  %7 = alloca ptr, align 8
  %8 = alloca i64, align 8
  %9 = alloca ptr, align 8
  %10 = alloca i32, align 4
  store i64 %0, ptr %6, align 8, !tbaa !7
  store ptr %1, ptr %7, align 8, !tbaa !13
  store i64 %2, ptr %8, align 8, !tbaa !7
  store ptr %3, ptr %9, align 8, !tbaa !34
  store i32 %4, ptr %10, align 4, !tbaa !11
  %11 = load i64, ptr %8, align 8, !tbaa !7
  %12 = load ptr, ptr %7, align 8, !tbaa !13
  store i64 %11, ptr %12, align 8, !tbaa !7
  %13 = load i64, ptr %6, align 8, !tbaa !7
  %14 = load i64, ptr %8, align 8, !tbaa !7
  %15 = load ptr, ptr %9, align 8, !tbaa !34
  %16 = load i32, ptr %10, align 4, !tbaa !11
  %17 = call i64 @rb_obj_written(i64 noundef %13, i64 noundef 36, i64 noundef %14, ptr noundef %15, i32 noundef %16)
  %18 = load i64, ptr %6, align 8, !tbaa !7
  ret i64 %18
}

; Function Attrs: inlinehint nounwind sspstrong willreturn memory(read) uwtable
define internal ptr @rb_array_const_ptr(i64 noundef %0) #6 {
  %2 = alloca ptr, align 8
  %3 = alloca i64, align 8
  store i64 %0, ptr %3, align 8, !tbaa !7
  %4 = load i64, ptr %3, align 8, !tbaa !7
  %5 = call zeroext i1 @RB_FL_ANY_RAW(i64 noundef %4, i64 noundef 8192) #26
  br i1 %5, label %6, label %11

6:                                                ; preds = %1
  %7 = load i64, ptr %3, align 8, !tbaa !7
  %8 = inttoptr i64 %7 to ptr
  %9 = getelementptr inbounds nuw %struct.RArray, ptr %8, i32 0, i32 1
  %10 = getelementptr inbounds [1 x i64], ptr %9, i64 0, i64 0
  store ptr %10, ptr %2, align 8
  br label %17

11:                                               ; preds = %1
  %12 = load i64, ptr %3, align 8, !tbaa !7
  %13 = inttoptr i64 %12 to ptr
  %14 = getelementptr inbounds nuw %struct.RArray, ptr %13, i32 0, i32 1
  %15 = getelementptr inbounds nuw %struct.anon.15, ptr %14, i32 0, i32 2
  %16 = load ptr, ptr %15, align 8, !tbaa !93
  store ptr %16, ptr %2, align 8
  br label %17

17:                                               ; preds = %11, %6
  %18 = load ptr, ptr %2, align 8
  ret ptr %18
}

; Function Attrs: inlinehint nounwind sspstrong uwtable
define internal i32 @RARRAY_LENINT(i64 noundef %0) #4 {
  %2 = alloca i64, align 8
  store i64 %0, ptr %2, align 8, !tbaa !7
  %3 = load i64, ptr %2, align 8, !tbaa !7
  %4 = call i64 @rb_array_len(i64 noundef %3) #26
  %5 = call i32 @rb_long2int_inline(i64 noundef %4)
  ret i32 %5
}

; Function Attrs: nounwind sspstrong uwtable
define internal ptr @proc_entry_ptr(i64 noundef %0) #0 {
  %2 = alloca i64, align 8
  %3 = alloca ptr, align 8
  store i64 %0, ptr %2, align 8, !tbaa !7
  call void @llvm.lifetime.start.p0(i64 8, ptr %3) #23
  %4 = load i64, ptr %2, align 8, !tbaa !7
  %5 = call ptr @rb_check_typeddata(i64 noundef %4, ptr noundef @proc_entry_data_type)
  store ptr %5, ptr %3, align 8, !tbaa !43
  %6 = load ptr, ptr %3, align 8, !tbaa !43
  call void @llvm.lifetime.end.p0(i64 8, ptr %3) #23
  ret ptr %6
}

; Function Attrs: inlinehint nounwind sspstrong uwtable
define internal void @MEMO_V2_SET(ptr noundef %0, i64 noundef %1) #4 {
  %3 = alloca ptr, align 8
  %4 = alloca i64, align 8
  store ptr %0, ptr %3, align 8, !tbaa !101
  store i64 %1, ptr %4, align 8, !tbaa !7
  %5 = load ptr, ptr %3, align 8, !tbaa !101
  %6 = ptrtoint ptr %5 to i64
  %7 = load ptr, ptr %3, align 8, !tbaa !101
  %8 = getelementptr inbounds nuw %struct.MEMO, ptr %7, i32 0, i32 3
  %9 = load i64, ptr %4, align 8, !tbaa !7
  %10 = call i64 @rb_obj_write(i64 noundef %6, ptr noundef %8, i64 noundef %9, ptr noundef @.str.108, i32 noundef 254)
  ret void
}

; Function Attrs: inlinehint nounwind sspstrong willreturn memory(none) uwtable
define internal zeroext i1 @RB_TEST(i64 noundef %0) #2 {
  %2 = alloca i64, align 8
  store i64 %0, ptr %2, align 8, !tbaa !7
  %3 = load i64, ptr %2, align 8, !tbaa !7
  %4 = and i64 %3, -5
  %5 = icmp ne i64 %4, 0
  ret i1 %5
}

; Function Attrs: nounwind sspstrong uwtable
define internal i64 @lazyenum_yield_values(i64 noundef %0, ptr noundef %1) #0 {
  %3 = alloca i64, align 8
  %4 = alloca ptr, align 8
  %5 = alloca ptr, align 8
  %6 = alloca i32, align 4
  %7 = alloca ptr, align 8
  %8 = alloca i64, align 8
  store i64 %0, ptr %3, align 8, !tbaa !7
  store ptr %1, ptr %4, align 8, !tbaa !101
  call void @llvm.lifetime.start.p0(i64 8, ptr %5) #23
  %9 = load i64, ptr %3, align 8, !tbaa !7
  %10 = call ptr @proc_entry_ptr(i64 noundef %9)
  store ptr %10, ptr %5, align 8, !tbaa !43
  call void @llvm.lifetime.start.p0(i64 4, ptr %6) #23
  store i32 1, ptr %6, align 4, !tbaa !11
  call void @llvm.lifetime.start.p0(i64 8, ptr %7) #23
  %11 = load ptr, ptr %4, align 8, !tbaa !101
  %12 = getelementptr inbounds nuw %struct.MEMO, ptr %11, i32 0, i32 3
  store ptr %12, ptr %7, align 8, !tbaa !13
  %13 = load ptr, ptr %4, align 8, !tbaa !101
  %14 = getelementptr inbounds nuw %struct.MEMO, ptr %13, i32 0, i32 4
  %15 = load i64, ptr %14, align 8, !tbaa !93
  %16 = and i64 %15, 2
  %17 = icmp ne i64 %16, 0
  br i1 %17, label %18, label %25

18:                                               ; preds = %2
  call void @llvm.lifetime.start.p0(i64 8, ptr %8) #23
  %19 = load ptr, ptr %7, align 8, !tbaa !13
  %20 = load i64, ptr %19, align 8, !tbaa !7
  store i64 %20, ptr %8, align 8, !tbaa !7
  %21 = load i64, ptr %8, align 8, !tbaa !7
  %22 = call i32 @RARRAY_LENINT(i64 noundef %21)
  store i32 %22, ptr %6, align 4, !tbaa !11
  %23 = load i64, ptr %8, align 8, !tbaa !7
  %24 = call ptr @rb_array_const_ptr(i64 noundef %23) #26
  store ptr %24, ptr %7, align 8, !tbaa !13
  call void @llvm.lifetime.end.p0(i64 8, ptr %8) #23
  br label %25

25:                                               ; preds = %18, %2
  %26 = load ptr, ptr %5, align 8, !tbaa !43
  %27 = getelementptr inbounds nuw %struct.proc_entry, ptr %26, i32 0, i32 0
  %28 = load i64, ptr %27, align 8, !tbaa !99
  %29 = load i32, ptr %6, align 4, !tbaa !11
  %30 = load ptr, ptr %7, align 8, !tbaa !13
  %31 = call i64 @rb_proc_call_with_block(i64 noundef %28, i32 noundef %29, ptr noundef %30, i64 noundef 4)
  call void @llvm.lifetime.end.p0(i64 8, ptr %7) #23
  call void @llvm.lifetime.end.p0(i64 4, ptr %6) #23
  call void @llvm.lifetime.end.p0(i64 8, ptr %5) #23
  ret i64 %31
}

; Function Attrs: nounwind sspstrong uwtable
define internal ptr @lazy_filter_map_proc(i64 noundef %0, ptr noundef %1, i64 noundef %2, i64 noundef %3) #0 {
  %5 = alloca ptr, align 8
  %6 = alloca i64, align 8
  %7 = alloca ptr, align 8
  %8 = alloca i64, align 8
  %9 = alloca i64, align 8
  %10 = alloca i64, align 8
  %11 = alloca i32, align 4
  store i64 %0, ptr %6, align 8, !tbaa !7
  store ptr %1, ptr %7, align 8, !tbaa !101
  store i64 %2, ptr %8, align 8, !tbaa !7
  store i64 %3, ptr %9, align 8, !tbaa !7
  call void @llvm.lifetime.start.p0(i64 8, ptr %10) #23
  %12 = load i64, ptr %6, align 8, !tbaa !7
  %13 = load ptr, ptr %7, align 8, !tbaa !101
  %14 = call i64 @lazyenum_yield_values(i64 noundef %12, ptr noundef %13)
  store i64 %14, ptr %10, align 8, !tbaa !7
  %15 = load i64, ptr %10, align 8, !tbaa !7
  %16 = call zeroext i1 @RB_TEST(i64 noundef %15) #24
  br i1 %16, label %18, label %17

17:                                               ; preds = %4
  store ptr null, ptr %5, align 8
  store i32 1, ptr %11, align 4
  br label %26

18:                                               ; preds = %4
  %19 = load ptr, ptr %7, align 8, !tbaa !101
  %20 = load i64, ptr %10, align 8, !tbaa !7
  call void @MEMO_V2_SET(ptr noundef %19, i64 noundef %20)
  %21 = load ptr, ptr %7, align 8, !tbaa !101
  %22 = getelementptr inbounds nuw %struct.MEMO, ptr %21, i32 0, i32 4
  %23 = load i64, ptr %22, align 8, !tbaa !93
  %24 = and i64 %23, -3
  store i64 %24, ptr %22, align 8, !tbaa !93
  %25 = load ptr, ptr %7, align 8, !tbaa !101
  store ptr %25, ptr %5, align 8
  store i32 1, ptr %11, align 4
  br label %26

26:                                               ; preds = %18, %17
  call void @llvm.lifetime.end.p0(i64 8, ptr %10) #23
  %27 = load ptr, ptr %5, align 8
  ret ptr %27
}