; Function Attrs: nounwind sspstrong uwtable
define internal noundef ptr @lazy_filter_map_proc(i64 noundef %0, ptr noundef %1, i64 %2, i64 %3) #0 {
  %5 = tail call ptr @rb_check_typeddata(i64 noundef %0, ptr noundef nonnull @proc_entry_data_type) #18
  %6 = getelementptr inbounds nuw i8, ptr %1, i64 24
  %7 = getelementptr inbounds nuw i8, ptr %1, i64 32
  %8 = load i64, ptr %7, align 8, !tbaa !44
  %9 = and i64 %8, 2
  %.not.i = icmp eq i64 %9, 0
  br i1 %.not.i, label %lazyenum_yield_values.exit, label %10

10:                                               ; preds = %4
  %11 = load i64, ptr %6, align 8, !tbaa !7
  %12 = inttoptr i64 %11 to ptr
  %13 = load i64, ptr %12, align 8, !tbaa !21
  %14 = and i64 %13, 8192
  %.not.i.i.i = icmp eq i64 %14, 0
  br i1 %.not.i.i.i, label %rb_array_len.exit.i.i, label %rb_array_len.exit.i.thread.i

rb_array_len.exit.i.i:                            ; preds = %10
  %15 = getelementptr inbounds nuw i8, ptr %12, i64 16
  %16 = load i64, ptr %15, align 8, !tbaa !44
  %17 = add i64 %16, 2147483648
  %.not.i1.i.i = icmp ult i64 %17, 4294967296
  br i1 %.not.i1.i.i, label %23, label %22

rb_array_len.exit.i.thread.i:                     ; preds = %10
  %18 = trunc i64 %13 to i32
  %19 = lshr i32 %18, 15
  %20 = and i32 %19, 127
  %21 = getelementptr inbounds nuw i8, ptr %12, i64 16
  br label %lazyenum_yield_values.exit

22:                                               ; preds = %rb_array_len.exit.i.i
  tail call void @rb_out_of_int(i64 noundef %16) #20
  unreachable

23:                                               ; preds = %rb_array_len.exit.i.i
  %24 = trunc i64 %16 to i32
  %25 = getelementptr inbounds nuw i8, ptr %12, i64 32
  %26 = load ptr, ptr %25, align 8, !tbaa !44
  br label %lazyenum_yield_values.exit

lazyenum_yield_values.exit:                       ; preds = %4, %rb_array_len.exit.i.thread.i, %23
  %.08.i = phi ptr [ %6, %4 ], [ %21, %rb_array_len.exit.i.thread.i ], [ %26, %23 ]
  %.0.i = phi i32 [ 1, %4 ], [ %20, %rb_array_len.exit.i.thread.i ], [ %24, %23 ]
  %27 = load i64, ptr %5, align 8, !tbaa !93
  %28 = tail call i64 @rb_proc_call_with_block(i64 noundef %27, i32 noundef %.0.i, ptr noundef %.08.i, i64 noundef 4) #18
  %29 = and i64 %28, -5
  %.not = icmp eq i64 %29, 0
  br i1 %.not, label %36, label %30

30:                                               ; preds = %lazyenum_yield_values.exit
  store i64 %28, ptr %6, align 8, !tbaa !7
  %31 = and i64 %28, 7
  %.not7 = icmp eq i64 %31, 0
  br i1 %.not7, label %32, label %MEMO_V2_SET.exit

32:                                               ; preds = %30
  %33 = ptrtoint ptr %1 to i64
  tail call void @rb_gc_writebarrier(i64 noundef %33, i64 noundef %28) #18
  br label %MEMO_V2_SET.exit

MEMO_V2_SET.exit:                                 ; preds = %30, %32
  %34 = load i64, ptr %7, align 8, !tbaa !44
  %35 = and i64 %34, -3
  store i64 %35, ptr %7, align 8, !tbaa !44
  br label %36

36:                                               ; preds = %lazyenum_yield_values.exit, %MEMO_V2_SET.exit
  %.0 = phi ptr [ %1, %MEMO_V2_SET.exit ], [ null, %lazyenum_yield_values.exit ]
  ret ptr %.0
}